; Function Attrs: mustprogress uwtable
define noundef zeroext i1 @_ZN8proxygen16QPACKHeaderTable11setCapacityEj(ptr noundef nonnull align 8 dereferenceable(104) %this, i32 noundef %capacity) unnamed_addr #3 align 2 {
entry:
  %call = tail call noundef zeroext i1 @_ZN8proxygen11HeaderTable11setCapacityEj(ptr noundef nonnull align 8 dereferenceable(80) %this, i32 noundef %capacity)
  %refCount_ = getelementptr inbounds i8, ptr %this, i64 96
  %0 = load ptr, ptr %refCount_, align 8
  %cmp.i = icmp ne ptr %0, null
  %or.cond = select i1 %call, i1 %cmp.i, i1 false
  br i1 %or.cond, label %if.then3, label %return

if.then3:                                         ; preds = %entry
  %div1.i = lshr i32 %capacity, 3
  %cmp.i.i = icmp ult i32 %capacity, 384
  %1 = tail call i32 @llvm.umin.i32(i32 %div1.i, i32 512)
  %2 = select i1 %cmp.i.i, i32 48, i32 %1
  %minFree_ = getelementptr inbounds i8, ptr %this, i64 92
  store i32 %2, ptr %minFree_, align 4
  br label %return

return:                                           ; preds = %if.then3, %entry
  ret i1 %call
}